; Function Attrs: nounwind uwtable
define void @Bmc_CexCarePropagateFwd(ptr noundef readonly captures(none) %0, ptr noundef readonly captures(none) %1, ptr noundef readonly captures(none) %2, ptr noundef captures(none) %3) local_unnamed_addr #0 {
  %5 = getelementptr inbounds nuw i8, ptr %1, i64 12
  %6 = load i32, ptr %5, align 4, !tbaa !42
  %7 = getelementptr inbounds nuw i8, ptr %1, i64 4
  %8 = load i32, ptr %7, align 4, !tbaa !30
  %9 = add nsw i32 %8, 1
  %10 = shl i32 %6, 1
  %11 = mul i32 %10, %9
  %12 = getelementptr i8, ptr %0, i64 32
  %.val = load ptr, ptr %12, align 8, !tbaa !32
  %.val.fr = freeze ptr %.val
  %13 = getelementptr inbounds nuw i8, ptr %.val.fr, i64 8
  store i32 %11, ptr %13, align 4, !tbaa !48
  %14 = getelementptr i8, ptr %0, i64 16
  %.val41 = load i32, ptr %14, align 8, !tbaa !33
  %.not = icmp eq ptr %.val.fr, null
  %15 = icmp slt i32 %.val41, 1
  %or.cond54 = or i1 %.not, %15
  br i1 %or.cond54, label %.critedge, label %.lr.ph.split.preheader

.lr.ph.split.preheader:                           ; preds = %4
  %16 = getelementptr i8, ptr %0, i64 72
  %.val45 = load ptr, ptr %16, align 8, !tbaa !34
  %17 = getelementptr i8, ptr %.val45, i64 8
  %.val49.val = load ptr, ptr %17, align 8, !tbaa !35
  %18 = getelementptr i8, ptr %.val45, i64 4
  %.val45.val = load i32, ptr %18, align 4, !tbaa !36
  %invariant.op = sub i32 %.val45.val, %.val41
  %wide.trip.count = zext nneg i32 %.val41 to i64
  br label %.lr.ph.split

.lr.ph.split:                                     ; preds = %.lr.ph.split.preheader, %.lr.ph.split
  %indvars.iv = phi i64 [ 0, %.lr.ph.split.preheader ], [ %indvars.iv.next, %.lr.ph.split ]
  %19 = trunc nuw nsw i64 %indvars.iv to i32
  %.reass = add i32 %invariant.op, %19
  %20 = sext i32 %.reass to i64
  %21 = getelementptr inbounds i32, ptr %.val49.val, i64 %20
  %22 = load i32, ptr %21, align 4, !tbaa !37
  %23 = sext i32 %22 to i64
  %24 = getelementptr inbounds %struct.Gia_Obj_t_, ptr %.val.fr, i64 %23, i32 1
  store i32 %11, ptr %24, align 4, !tbaa !48
  %indvars.iv.next = add nuw nsw i64 %indvars.iv, 1
  %exitcond.not = icmp eq i64 %indvars.iv.next, %wide.trip.count
  br i1 %exitcond.not, label %.critedge, label %.lr.ph.split, !llvm.loop !53

.critedge:                                        ; preds = %.lr.ph.split, %4
  %25 = getelementptr inbounds nuw i8, ptr %3, i64 4
  store i32 0, ptr %25, align 4, !tbaa !36
  %.not3762 = icmp slt i32 %8, 0
  br i1 %.not3762, label %._crit_edge, label %.preheader.lr.ph

.preheader.lr.ph:                                 ; preds = %.critedge
  %26 = getelementptr i8, ptr %0, i64 72
  %27 = getelementptr i8, ptr %0, i64 64
  %.phi.trans.insert.i = getelementptr inbounds nuw i8, ptr %3, i64 8
  br label %.preheader

.preheader:                                       ; preds = %.preheader.lr.ph, %.critedge2
  %.063 = phi i32 [ 0, %.preheader.lr.ph ], [ %78, %.critedge2 ]
  %.val4056 = load i32, ptr %14, align 8, !tbaa !33
  %28 = icmp sgt i32 %.val4056, 0
  br i1 %28, label %.lr.ph60, label %.critedge2

.lr.ph60:                                         ; preds = %.preheader, %Vec_IntPush.exit
  %.val40.pn = phi i32 [ %.val40, %Vec_IntPush.exit ], [ %.val4056, %.preheader ]
  %.158 = phi i32 [ %76, %Vec_IntPush.exit ], [ 0, %.preheader ]
  %.val46 = load ptr, ptr %12, align 8, !tbaa !32
  %.not38 = icmp eq ptr %.val46, null
  br i1 %.not38, label %.critedge2, label %29

29:                                               ; preds = %.lr.ph60
  %.val43 = load ptr, ptr %26, align 8, !tbaa !34
  %30 = getelementptr i8, ptr %.val43, i64 8
  %.val47.val = load ptr, ptr %30, align 8, !tbaa !35
  %31 = sub i32 %.158, %.val40.pn
  %32 = getelementptr i8, ptr %.val43, i64 4
  %.val43.val = load i32, ptr %32, align 4, !tbaa !36
  %33 = add i32 %31, %.val43.val
  %34 = sext i32 %33 to i64
  %35 = getelementptr inbounds i32, ptr %.val47.val, i64 %34
  %36 = load i32, ptr %35, align 4, !tbaa !37
  %37 = sext i32 %36 to i64
  %.val51 = load ptr, ptr %27, align 8, !tbaa !40
  %38 = getelementptr i8, ptr %.val51, i64 8
  %.val53.val = load ptr, ptr %38, align 8, !tbaa !35
  %39 = getelementptr i8, ptr %.val51, i64 4
  %.val51.val = load i32, ptr %39, align 4, !tbaa !36
  %40 = add i32 %31, %.val51.val
  %41 = sext i32 %40 to i64
  %42 = getelementptr inbounds i32, ptr %.val53.val, i64 %41
  %43 = load i32, ptr %42, align 4, !tbaa !37
  %44 = sext i32 %43 to i64
  %45 = getelementptr inbounds %struct.Gia_Obj_t_, ptr %.val46, i64 %37, i32 1
  %46 = load i32, ptr %45, align 4, !tbaa !48
  %47 = getelementptr inbounds %struct.Gia_Obj_t_, ptr %.val46, i64 %44, i32 1
  store i32 %46, ptr %47, align 4, !tbaa !48
  %48 = load i32, ptr %25, align 4, !tbaa !36
  %49 = load i32, ptr %3, align 8, !tbaa !54
  %50 = icmp eq i32 %48, %49
  br i1 %50, label %51, label %.Vec_IntGrow.exit10_crit_edge.i

.Vec_IntGrow.exit10_crit_edge.i:                  ; preds = %29
  %.pre.i = load ptr, ptr %.phi.trans.insert.i, align 8, !tbaa !35
  br label %Vec_IntPush.exit

51:                                               ; preds = %29
  %52 = icmp slt i32 %48, 16
  br i1 %52, label %53, label %60

53:                                               ; preds = %51
  %54 = load ptr, ptr %.phi.trans.insert.i, align 8, !tbaa !35
  %.not9.i.i = icmp eq ptr %54, null
  br i1 %.not9.i.i, label %57, label %55

55:                                               ; preds = %53
  %56 = tail call dereferenceable_or_null(64) ptr @realloc(ptr noundef nonnull %54, i64 noundef 64) #12
  br label %Vec_IntGrow.exit.i

57:                                               ; preds = %53
  %58 = tail call noalias dereferenceable_or_null(64) ptr @malloc(i64 noundef 64) #13
  br label %Vec_IntGrow.exit.i

Vec_IntGrow.exit.i:                               ; preds = %57, %55
  %59 = phi ptr [ %56, %55 ], [ %58, %57 ]
  store ptr %59, ptr %.phi.trans.insert.i, align 8, !tbaa !35
  store i32 16, ptr %3, align 8, !tbaa !54
  br label %Vec_IntPush.exit

60:                                               ; preds = %51
  %61 = shl nuw nsw i32 %48, 1
  %62 = load ptr, ptr %.phi.trans.insert.i, align 8, !tbaa !35
  %.not9.i9.i = icmp eq ptr %62, null
  %63 = zext nneg i32 %61 to i64
  %64 = shl nuw nsw i64 %63, 2
  br i1 %.not9.i9.i, label %67, label %65

65:                                               ; preds = %60
  %66 = tail call ptr @realloc(ptr noundef nonnull %62, i64 noundef %64) #12
  br label %69

67:                                               ; preds = %60
  %68 = tail call noalias ptr @malloc(i64 noundef %64) #13
  br label %69

69:                                               ; preds = %67, %65
  %70 = phi ptr [ %66, %65 ], [ %68, %67 ]
  store ptr %70, ptr %.phi.trans.insert.i, align 8, !tbaa !35
  store i32 %61, ptr %3, align 8, !tbaa !54
  br label %Vec_IntPush.exit

Vec_IntPush.exit:                                 ; preds = %.Vec_IntGrow.exit10_crit_edge.i, %Vec_IntGrow.exit.i, %69
  %71 = phi ptr [ %.pre.i, %.Vec_IntGrow.exit10_crit_edge.i ], [ %70, %69 ], [ %59, %Vec_IntGrow.exit.i ]
  %72 = load i32, ptr %25, align 4, !tbaa !36
  %73 = add nsw i32 %72, 1
  store i32 %73, ptr %25, align 4, !tbaa !36
  %74 = sext i32 %72 to i64
  %75 = getelementptr inbounds i32, ptr %71, i64 %74
  store i32 %46, ptr %75, align 4, !tbaa !37
  %76 = add nuw nsw i32 %.158, 1
  %.val40 = load i32, ptr %14, align 8, !tbaa !33
  %77 = icmp slt i32 %76, %.val40
  br i1 %77, label %.lr.ph60, label %.critedge2, !llvm.loop !55

.critedge2:                                       ; preds = %Vec_IntPush.exit, %.lr.ph60, %.preheader
  tail call void @Bmc_CexCarePropagateFwdOne(ptr noundef nonnull %0, ptr noundef %1, i32 noundef %.063, ptr noundef %2)
  %78 = add nuw nsw i32 %.063, 1
  %79 = load i32, ptr %7, align 4, !tbaa !30
  %.not37.not = icmp slt i32 %.063, %79
  br i1 %.not37.not, label %.preheader, label %._crit_edge, !llvm.loop !56

._crit_edge:                                      ; preds = %.critedge2, %.critedge
  ret void
}